target datalayout = "e-m:e-p270:32:32-p271:32:32-p272:64:64-i64:64-i128:128-f80:128-n8:16:32:64-S128"
target triple = "x86_64-pc-linux-gnu"

; Function Attrs: nounwind uwtable
define hidden ptr @mbedtls_cipher_info_from_psa(i32 noundef %0, i16 noundef zeroext %1, i64 noundef %2, ptr noundef %3) #0 {
  %5 = alloca ptr, align 8
  %6 = alloca i32, align 4
  %7 = alloca i16, align 2
  %8 = alloca i64, align 8
  %9 = alloca ptr, align 8
  %10 = alloca i32, align 4
  %11 = alloca i32, align 4
  %12 = alloca i32, align 4
  %13 = alloca i32, align 4
  store i32 %0, ptr %6, align 4, !tbaa !3
  store i16 %1, ptr %7, align 2, !tbaa !7
  store i64 %2, ptr %8, align 8, !tbaa !13
  store ptr %3, ptr %9, align 8, !tbaa !12
  call void @llvm.lifetime.start.p0(i64 4, ptr %10) #7
  call void @llvm.lifetime.start.p0(i64 4, ptr %11) #7
  call void @llvm.lifetime.start.p0(i64 4, ptr %12) #7
  store i32 0, ptr %12, align 4, !tbaa !3
  %14 = load i32, ptr %6, align 4, !tbaa !3
  %15 = load i16, ptr %7, align 2, !tbaa !7
  %16 = call i32 @mbedtls_cipher_values_from_psa(i32 noundef %14, i16 noundef zeroext %15, ptr noundef %8, ptr noundef %10, ptr noundef %12)
  store i32 %16, ptr %11, align 4, !tbaa !3
  %17 = load i32, ptr %11, align 4, !tbaa !3
  %18 = icmp ne i32 %17, 0
  br i1 %18, label %19, label %20

19:                                               ; preds = %4
  store ptr null, ptr %5, align 8
  store i32 1, ptr %13, align 4
  br label %32

20:                                               ; preds = %4
  %21 = load ptr, ptr %9, align 8, !tbaa !12
  %22 = icmp ne ptr %21, null
  br i1 %22, label %23, label %26

23:                                               ; preds = %20
  %24 = load i32, ptr %12, align 4, !tbaa !3
  %25 = load ptr, ptr %9, align 8, !tbaa !12
  store i32 %24, ptr %25, align 4, !tbaa !3
  br label %26

26:                                               ; preds = %23, %20
  %27 = load i32, ptr %12, align 4, !tbaa !3
  %28 = load i64, ptr %8, align 8, !tbaa !13
  %29 = trunc i64 %28 to i32
  %30 = load i32, ptr %10, align 4, !tbaa !3
  %31 = call ptr @mbedtls_cipher_info_from_values(i32 noundef %27, i32 noundef %29, i32 noundef %30)
  store ptr %31, ptr %5, align 8
  store i32 1, ptr %13, align 4
  br label %32

32:                                               ; preds = %26, %19
  call void @llvm.lifetime.end.p0(i64 4, ptr %12) #7
  call void @llvm.lifetime.end.p0(i64 4, ptr %11) #7
  call void @llvm.lifetime.end.p0(i64 4, ptr %10) #7
  %33 = load ptr, ptr %5, align 8
  ret ptr %33
}