; Function Attrs: nounwind uwtable
define hidden ptr @mbedtls_cipher_info_from_psa(i32 noundef %0, i16 noundef zeroext %1, i64 noundef %2, ptr noundef writeonly %3) local_unnamed_addr #2 {
  %5 = alloca i64, align 8
  %6 = alloca i32, align 4
  %7 = alloca i32, align 4
  store i64 %2, ptr %5, align 8, !tbaa !7
  call void @llvm.lifetime.start.p0(i64 4, ptr nonnull %6) #8
  call void @llvm.lifetime.start.p0(i64 4, ptr nonnull %7) #8
  store i32 0, ptr %7, align 4, !tbaa !3
  %8 = call i32 @mbedtls_cipher_values_from_psa(i32 noundef %0, i16 noundef zeroext %1, ptr noundef nonnull %5, ptr noundef nonnull %6, ptr noundef nonnull %7)
  %.not = icmp eq i32 %8, 0
  br i1 %.not, label %9, label %16

9:                                                ; preds = %4
  %.not6 = icmp eq ptr %3, null
  %.pre = load i32, ptr %7, align 4, !tbaa !3
  br i1 %.not6, label %11, label %10

10:                                               ; preds = %9
  store i32 %.pre, ptr %3, align 4, !tbaa !3
  br label %11

11:                                               ; preds = %10, %9
  %12 = load i64, ptr %5, align 8, !tbaa !7
  %13 = trunc i64 %12 to i32
  %14 = load i32, ptr %6, align 4, !tbaa !3
  %15 = call ptr @mbedtls_cipher_info_from_values(i32 noundef %.pre, i32 noundef %13, i32 noundef %14) #8
  br label %16

16:                                               ; preds = %4, %11
  %.0 = phi ptr [ %15, %11 ], [ null, %4 ]
  call void @llvm.lifetime.end.p0(i64 4, ptr nonnull %7) #8
  call void @llvm.lifetime.end.p0(i64 4, ptr nonnull %6) #8
  ret ptr %.0
}